target datalayout = "e-m:e-p270:32:32-p271:32:32-p272:64:64-i64:64-i128:128-f80:128-n8:16:32:64-S128"
target triple = "x86_64-pc-linux-gnu"

%"class.gmx::FileIOXdrSerializer" = type { %"class.gmx::ISerializer", ptr }
%"class.gmx::ISerializer" = type { ptr }

@.str.2 = private unnamed_addr constant [127 x i8] c"generated/home/dtcxzyw/WorkSpace/Projects/compilers/llvm-opt-benchmark/bench/gromacs/gromacs/src/gromacs/fileio/gmxfio_xdr.cpp\00", align 1
@.str.33 = private unnamed_addr constant [7 x i8] c"values\00", align 1

; Function Attrs: mustprogress uwtable
define noundef zeroext i1 @_Z17gmx_fio_ndoe_rvecP8t_fileioPA3_fiPKcS4_i(ptr noundef %0, ptr noundef %1, i32 noundef %2, ptr noundef %3, ptr noundef %4, i32 noundef %5) #2 {
  %7 = alloca ptr, align 8
  %8 = alloca ptr, align 8
  %9 = alloca i32, align 4
  %10 = alloca ptr, align 8
  %11 = alloca ptr, align 8
  %12 = alloca i32, align 4
  %13 = alloca i8, align 1
  store ptr %0, ptr %7, align 8, !tbaa !57
  store ptr %1, ptr %8, align 8, !tbaa !48
  store i32 %2, ptr %9, align 4, !tbaa !56
  store ptr %3, ptr %10, align 8, !tbaa !41
  store ptr %4, ptr %11, align 8, !tbaa !41
  store i32 %5, ptr %12, align 4, !tbaa !56
  call void @llvm.lifetime.start.p0(i64 1, ptr %13) #15
  store i8 1, ptr %13, align 1, !tbaa !58
  %14 = load ptr, ptr %7, align 8, !tbaa !57
  call void @_Z12gmx_fio_lockP8t_fileio(ptr noundef %14)
  %15 = load i8, ptr %13, align 1, !tbaa !58, !range !37, !noundef !38
  %16 = trunc i8 %15 to i1
  br i1 %16, label %17, label %26

17:                                               ; preds = %6
  %18 = load ptr, ptr %7, align 8, !tbaa !57
  %19 = load ptr, ptr %8, align 8, !tbaa !48
  %20 = load i32, ptr %9, align 4, !tbaa !56
  %21 = sext i32 %20 to i64
  %22 = load ptr, ptr %10, align 8, !tbaa !41
  %23 = load ptr, ptr %11, align 8, !tbaa !41
  %24 = load i32, ptr %12, align 4, !tbaa !56
  %25 = call noundef zeroext i1 @_ZL6do_xdrP8t_fileioPvm15InputOutputTypePKcS4_i(ptr noundef %18, ptr noundef %19, i64 noundef %21, i32 noundef 12, ptr noundef %22, ptr noundef %23, i32 noundef %24)
  br label %26

26:                                               ; preds = %17, %6
  %27 = phi i1 [ false, %6 ], [ %25, %17 ]
  %28 = zext i1 %27 to i8
  store i8 %28, ptr %13, align 1, !tbaa !58
  %29 = load ptr, ptr %7, align 8, !tbaa !57
  call void @_Z14gmx_fio_unlockP8t_fileio(ptr noundef %29)
  %30 = load i8, ptr %13, align 1, !tbaa !58, !range !37, !noundef !38
  %31 = trunc i8 %30 to i1
  call void @llvm.lifetime.end.p0(i64 1, ptr %13) #15
  ret i1 %31
}

; Function Attrs: mustprogress uwtable
define void @_ZN3gmx19FileIOXdrSerializer11doRvecArrayEPA3_fi(ptr noundef nonnull align 8 dereferenceable(16) %0, ptr noundef %1, i32 noundef %2) unnamed_addr #2 align 2 {
  %4 = alloca ptr, align 8
  %5 = alloca ptr, align 8
  %6 = alloca i32, align 4
  store ptr %0, ptr %4, align 8, !tbaa !9
  store ptr %1, ptr %5, align 8, !tbaa !48
  store i32 %2, ptr %6, align 4, !tbaa !56
  %7 = load ptr, ptr %4, align 8
  %8 = getelementptr inbounds nuw %"class.gmx::FileIOXdrSerializer", ptr %7, i32 0, i32 1
  %9 = load ptr, ptr %8, align 8, !tbaa !11
  %10 = load ptr, ptr %5, align 8, !tbaa !48
  %11 = load i32, ptr %6, align 4, !tbaa !56
  %12 = call noundef zeroext i1 @_Z17gmx_fio_ndoe_rvecP8t_fileioPA3_fiPKcS4_i(ptr noundef %9, ptr noundef %10, i32 noundef %11, ptr noundef @.str.33, ptr noundef @.str.2, i32 noundef 880)
  ret void
}