; Function Attrs: mustprogress uwtable
define void @_ZN3gmx19FileIOXdrSerializer11doRvecArrayEPA3_fi(ptr noundef nonnull readonly align 8 captures(none) dereferenceable(16) %0, ptr noundef %1, i32 noundef %2) unnamed_addr #3 align 2 {
  %4 = getelementptr inbounds nuw i8, ptr %0, i64 8
  %5 = load ptr, ptr %4, align 8, !tbaa !4
  tail call void @_Z12gmx_fio_lockP8t_fileio(ptr noundef %5)
  %6 = sext i32 %2 to i64
  %7 = tail call fastcc noundef zeroext i1 @_ZL6do_xdrP8t_fileioPvm15InputOutputTypePKcS4_i(ptr noundef %5, ptr noundef %1, i64 noundef %6, i32 noundef 12, ptr noundef nonnull @.str.33, ptr noundef nonnull @.str.2, i32 noundef 880)
  tail call void @_Z14gmx_fio_unlockP8t_fileio(ptr noundef %5)
  ret void
}